; Function Attrs: mustprogress uwtable
define void @_ZN2cv8img_hash15colorMomentHashERKNS_11_InputArrayERKNS_12_OutputArrayE(ptr noundef nonnull align 8 dereferenceable(24) %0, ptr noundef nonnull align 8 dereferenceable(24) %1) local_unnamed_addr #3 personality ptr @__gxx_personality_v0 {
  %3 = alloca %"class.(anonymous namespace)::ColorMomentHashImpl", align 8
  call void @llvm.lifetime.start.p0(i64 416, ptr nonnull %3) #19
  %4 = getelementptr inbounds nuw i8, ptr %3, i64 8
  call void @llvm.memset.p0.i64(ptr noundef nonnull align 8 dereferenceable(408) %4, i8 0, i64 408, i1 false)
  store ptr getelementptr inbounds nuw inrange(-16, 32) (i8, ptr @_ZTVN12_GLOBAL__N_119ColorMomentHashImplE, i64 16), ptr %3, align 8, !tbaa !3
  %5 = getelementptr inbounds nuw i8, ptr %3, i64 8
  call void @_ZN2cv3MatC1Ev(ptr noundef nonnull align 8 dereferenceable(96) %5) #19
  %6 = getelementptr inbounds nuw i8, ptr %3, i64 104
  call void @_ZN2cv3MatC1Ev(ptr noundef nonnull align 8 dereferenceable(96) %6) #19
  %7 = getelementptr inbounds nuw i8, ptr %3, i64 200
  call void @llvm.memset.p0.i64(ptr noundef nonnull align 8 dereferenceable(24) %7, i8 0, i64 24, i1 false)
  %8 = getelementptr inbounds nuw i8, ptr %3, i64 224
  call void @_ZN2cv3MatC1Ev(ptr noundef nonnull align 8 dereferenceable(96) %8) #19
  %9 = getelementptr inbounds nuw i8, ptr %3, i64 320
  call void @_ZN2cv3MatC1Ev(ptr noundef nonnull align 8 dereferenceable(96) %9) #19
  invoke void @_ZN12_GLOBAL__N_119ColorMomentHashImpl7computeERKN2cv11_InputArrayERKNS1_12_OutputArrayE(ptr noundef nonnull align 8 dereferenceable(416) %3, ptr noundef nonnull align 8 dereferenceable(24) %0, ptr noundef nonnull align 8 dereferenceable(24) %1)
          to label %10 unwind label %17

10:                                               ; preds = %2
  call void @_ZN2cv3MatD1Ev(ptr noundef nonnull align 8 dereferenceable(96) %9) #19
  call void @_ZN2cv3MatD1Ev(ptr noundef nonnull align 8 dereferenceable(96) %8) #19
  %11 = load ptr, ptr %7, align 8, !tbaa !31
  %12 = getelementptr inbounds nuw i8, ptr %3, i64 208
  %13 = load ptr, ptr %12, align 8, !tbaa !34
  %.not4.i.i.i.i.i = icmp eq ptr %11, %13
  br i1 %.not4.i.i.i.i.i, label %_ZSt8_DestroyIPN2cv3MatES1_EvT_S3_RSaIT0_E.exit.i.i, label %.lr.ph.i.i.i.i.i

.lr.ph.i.i.i.i.i:                                 ; preds = %10, %.lr.ph.i.i.i.i.i
  %.05.i.i.i.i.i = phi ptr [ %14, %.lr.ph.i.i.i.i.i ], [ %11, %10 ]
  call void @_ZN2cv3MatD1Ev(ptr noundef nonnull align 8 dereferenceable(96) %.05.i.i.i.i.i) #19
  %14 = getelementptr inbounds nuw i8, ptr %.05.i.i.i.i.i, i64 96
  %.not.i.i.i.i.i = icmp eq ptr %14, %13
  br i1 %.not.i.i.i.i.i, label %_ZSt8_DestroyIPN2cv3MatES1_EvT_S3_RSaIT0_E.exitthread-pre-split.i.i, label %.lr.ph.i.i.i.i.i, !llvm.loop !35

_ZSt8_DestroyIPN2cv3MatES1_EvT_S3_RSaIT0_E.exitthread-pre-split.i.i: ; preds = %.lr.ph.i.i.i.i.i
  %.pr.i.i = load ptr, ptr %7, align 8, !tbaa !31
  br label %_ZSt8_DestroyIPN2cv3MatES1_EvT_S3_RSaIT0_E.exit.i.i

_ZSt8_DestroyIPN2cv3MatES1_EvT_S3_RSaIT0_E.exit.i.i: ; preds = %_ZSt8_DestroyIPN2cv3MatES1_EvT_S3_RSaIT0_E.exitthread-pre-split.i.i, %10
  %15 = phi ptr [ %.pr.i.i, %_ZSt8_DestroyIPN2cv3MatES1_EvT_S3_RSaIT0_E.exitthread-pre-split.i.i ], [ %11, %10 ]
  %.not.i.i.i.i = icmp eq ptr %15, null
  br i1 %.not.i.i.i.i, label %_ZN12_GLOBAL__N_119ColorMomentHashImplD2Ev.exit, label %16

16:                                               ; preds = %_ZSt8_DestroyIPN2cv3MatES1_EvT_S3_RSaIT0_E.exit.i.i
  call void @_ZdlPv(ptr noundef nonnull %15) #22
  br label %_ZN12_GLOBAL__N_119ColorMomentHashImplD2Ev.exit

_ZN12_GLOBAL__N_119ColorMomentHashImplD2Ev.exit:  ; preds = %_ZSt8_DestroyIPN2cv3MatES1_EvT_S3_RSaIT0_E.exit.i.i, %16
  call void @_ZN2cv3MatD1Ev(ptr noundef nonnull align 8 dereferenceable(96) %6) #19
  call void @_ZN2cv3MatD1Ev(ptr noundef nonnull align 8 dereferenceable(96) %5) #19
  call void @llvm.lifetime.end.p0(i64 416, ptr nonnull %3) #19
  ret void

17:                                               ; preds = %2
  %18 = landingpad { ptr, i32 }
          cleanup
  call void @_ZN12_GLOBAL__N_119ColorMomentHashImplD2Ev(ptr noundef nonnull align 8 dereferenceable(416) %3) #19
  call void @llvm.lifetime.end.p0(i64 416, ptr nonnull %3) #19
  resume { ptr, i32 } %18
}